; Function Attrs: nofree norecurse nosync nounwind memory(argmem: read) uwtable
define i32 @TextLength(ptr noundef readonly captures(address_is_null) %0) local_unnamed_addr #22 {
  %.not = icmp eq ptr %0, null
  br i1 %.not, label %.loopexit, label %.preheader

.preheader:                                       ; preds = %1
  %2 = load i8, ptr %0, align 1
  %.not56 = icmp eq i8 %2, 0
  br i1 %.not56, label %.loopexit, label %.lr.ph

.lr.ph:                                           ; preds = %.preheader, %.lr.ph
  %.18 = phi i32 [ %4, %.lr.ph ], [ 0, %.preheader ]
  %.037 = phi ptr [ %3, %.lr.ph ], [ %0, %.preheader ]
  %3 = getelementptr inbounds nuw i8, ptr %.037, i64 1
  %4 = add i32 %.18, 1
  %5 = load i8, ptr %3, align 1
  %.not5 = icmp eq i8 %5, 0
  br i1 %.not5, label %.loopexit, label %.lr.ph

.loopexit:                                        ; preds = %.lr.ph, %.preheader, %1
  %.0 = phi i32 [ 0, %1 ], [ 0, %.preheader ], [ %4, %.lr.ph ]
  ret i32 %.0
}